target datalayout = "e-m:e-p270:32:32-p271:32:32-p272:64:64-i64:64-i128:128-f80:128-n8:16:32:64-S128"
target triple = "x86_64-pc-linux-gnu"

%struct.avifRWData = type { ptr, i64 }
%struct.avifImage = type { i32, i32, i32, i32, i32, i32, [3 x ptr], [3 x i32], i32, ptr, i32, i32, i32, %struct.avifRWData, i16, i16, i16, %struct.avifContentLightLevelInformationBox, i32, %struct.avifPixelAspectRatioBox, %struct.avifCleanApertureBox, %struct.avifImageRotation, %struct.avifImageMirror, %struct.avifRWData, %struct.avifRWData }
%struct.avifContentLightLevelInformationBox = type { i16, i16 }
%struct.avifPixelAspectRatioBox = type { i32, i32 }
%struct.avifCleanApertureBox = type { i32, i32, i32, i32, i32, i32, i32, i32 }
%struct.avifImageRotation = type { i8 }
%struct.avifImageMirror = type { i8 }

; Function Attrs: nounwind uwtable
define internal ptr @avifImageCopyAndPad(ptr noundef %0, i32 noundef %1, i32 noundef %2) #0 {
  %4 = alloca ptr, align 8
  %5 = alloca ptr, align 8
  %6 = alloca i32, align 4
  %7 = alloca i32, align 4
  %8 = alloca ptr, align 8
  %9 = alloca i32, align 4
  %10 = alloca i32, align 4
  %11 = alloca i32, align 4
  %12 = alloca i32, align 4
  %13 = alloca ptr, align 8
  %14 = alloca i32, align 4
  %15 = alloca i32, align 4
  %16 = alloca i32, align 4
  %17 = alloca i64, align 8
  %18 = alloca ptr, align 8
  %19 = alloca i32, align 4
  %20 = alloca i32, align 4
  %21 = alloca i32, align 4
  %22 = alloca i64, align 8
  %23 = alloca i32, align 4
  %24 = alloca ptr, align 8
  %25 = alloca i32, align 4
  %26 = alloca i32, align 4
  store ptr %0, ptr %5, align 8
  store i32 %1, ptr %6, align 4
  store i32 %2, ptr %7, align 4
  %27 = call ptr @avifImageCreateEmpty()
  store ptr %27, ptr %8, align 8
  %28 = load ptr, ptr %8, align 8
  %29 = icmp ne ptr %28, null
  br i1 %29, label %31, label %30

30:                                               ; preds = %3
  store ptr null, ptr %4, align 8
  br label %205

31:                                               ; preds = %3
  %32 = load ptr, ptr %8, align 8
  %33 = load ptr, ptr %5, align 8
  %34 = call i32 @avifImageCopy(ptr noundef %32, ptr noundef %33, i32 noundef 0)
  %35 = icmp ne i32 %34, 0
  br i1 %35, label %36, label %38

36:                                               ; preds = %31
  %37 = load ptr, ptr %8, align 8
  call void @avifImageDestroy(ptr noundef %37)
  store ptr null, ptr %4, align 8
  br label %205

38:                                               ; preds = %31
  %39 = load i32, ptr %6, align 4
  %40 = load ptr, ptr %8, align 8
  %41 = getelementptr inbounds nuw %struct.avifImage, ptr %40, i32 0, i32 0
  store i32 %39, ptr %41, align 8
  %42 = load i32, ptr %7, align 4
  %43 = load ptr, ptr %8, align 8
  %44 = getelementptr inbounds nuw %struct.avifImage, ptr %43, i32 0, i32 1
  store i32 %42, ptr %44, align 4
  %45 = load ptr, ptr %5, align 8
  %46 = getelementptr inbounds nuw %struct.avifImage, ptr %45, i32 0, i32 6
  %47 = getelementptr inbounds [3 x ptr], ptr %46, i64 0, i64 0
  %48 = load ptr, ptr %47, align 8
  %49 = icmp ne ptr %48, null
  br i1 %49, label %50, label %58

50:                                               ; preds = %38
  %51 = load ptr, ptr %8, align 8
  %52 = call i32 @avifImageAllocatePlanes(ptr noundef %51, i32 noundef 1)
  store i32 %52, ptr %9, align 4
  %53 = load i32, ptr %9, align 4
  %54 = icmp ne i32 %53, 0
  br i1 %54, label %55, label %57

55:                                               ; preds = %50
  %56 = load ptr, ptr %8, align 8
  call void @avifImageDestroy(ptr noundef %56)
  store ptr null, ptr %4, align 8
  br label %205

57:                                               ; preds = %50
  br label %58

58:                                               ; preds = %57, %38
  %59 = load ptr, ptr %5, align 8
  %60 = getelementptr inbounds nuw %struct.avifImage, ptr %59, i32 0, i32 9
  %61 = load ptr, ptr %60, align 8
  %62 = icmp ne ptr %61, null
  br i1 %62, label %63, label %71

63:                                               ; preds = %58
  %64 = load ptr, ptr %8, align 8
  %65 = call i32 @avifImageAllocatePlanes(ptr noundef %64, i32 noundef 2)
  store i32 %65, ptr %10, align 4
  %66 = load i32, ptr %10, align 4
  %67 = icmp ne i32 %66, 0
  br i1 %67, label %68, label %70

68:                                               ; preds = %63
  %69 = load ptr, ptr %8, align 8
  call void @avifImageDestroy(ptr noundef %69)
  store ptr null, ptr %4, align 8
  br label %205

70:                                               ; preds = %63
  br label %71

71:                                               ; preds = %70, %58
  %72 = load ptr, ptr %5, align 8
  %73 = call i32 @avifImageUsesU16(ptr noundef %72)
  store i32 %73, ptr %11, align 4
  store i32 0, ptr %12, align 4
  br label %74

74:                                               ; preds = %200, %71
  %75 = load i32, ptr %12, align 4
  %76 = icmp sle i32 %75, 3
  br i1 %76, label %77, label %203

77:                                               ; preds = %74
  %78 = load ptr, ptr %5, align 8
  %79 = load i32, ptr %12, align 4
  %80 = call ptr @avifImagePlane(ptr noundef %78, i32 noundef %79)
  store ptr %80, ptr %13, align 8
  %81 = load ptr, ptr %5, align 8
  %82 = load i32, ptr %12, align 4
  %83 = call i32 @avifImagePlaneRowBytes(ptr noundef %81, i32 noundef %82)
  store i32 %83, ptr %14, align 4
  %84 = load ptr, ptr %5, align 8
  %85 = load i32, ptr %12, align 4
  %86 = call i32 @avifImagePlaneWidth(ptr noundef %84, i32 noundef %85)
  store i32 %86, ptr %15, align 4
  %87 = load ptr, ptr %5, align 8
  %88 = load i32, ptr %12, align 4
  %89 = call i32 @avifImagePlaneHeight(ptr noundef %87, i32 noundef %88)
  store i32 %89, ptr %16, align 4
  %90 = load i32, ptr %15, align 4
  %91 = zext i32 %90 to i64
  %92 = load i32, ptr %11, align 4
  %93 = zext i32 %92 to i64
  %94 = shl i64 %91, %93
  store i64 %94, ptr %17, align 8
  %95 = load ptr, ptr %8, align 8
  %96 = load i32, ptr %12, align 4
  %97 = call ptr @avifImagePlane(ptr noundef %95, i32 noundef %96)
  store ptr %97, ptr %18, align 8
  %98 = load ptr, ptr %8, align 8
  %99 = load i32, ptr %12, align 4
  %100 = call i32 @avifImagePlaneRowBytes(ptr noundef %98, i32 noundef %99)
  store i32 %100, ptr %19, align 4
  %101 = load ptr, ptr %8, align 8
  %102 = load i32, ptr %12, align 4
  %103 = call i32 @avifImagePlaneWidth(ptr noundef %101, i32 noundef %102)
  store i32 %103, ptr %20, align 4
  %104 = load ptr, ptr %8, align 8
  %105 = load i32, ptr %12, align 4
  %106 = call i32 @avifImagePlaneHeight(ptr noundef %104, i32 noundef %105)
  store i32 %106, ptr %21, align 4
  %107 = load i32, ptr %20, align 4
  %108 = zext i32 %107 to i64
  %109 = load i32, ptr %11, align 4
  %110 = zext i32 %109 to i64
  %111 = shl i64 %108, %110
  store i64 %111, ptr %22, align 8
  store i32 0, ptr %23, align 4
  br label %112

112:                                              ; preds = %175, %77
  %113 = load i32, ptr %23, align 4
  %114 = load i32, ptr %16, align 4
  %115 = icmp ult i32 %113, %114
  br i1 %115, label %116, label %178

116:                                              ; preds = %112
  %117 = load ptr, ptr %18, align 8
  %118 = load ptr, ptr %13, align 8
  %119 = load i64, ptr %17, align 8
  call void @llvm.memcpy.p0.p0.i64(ptr align 1 %117, ptr align 1 %118, i64 %119, i1 false)
  %120 = load i32, ptr %20, align 4
  %121 = load i32, ptr %15, align 4
  %122 = icmp ugt i32 %120, %121
  br i1 %122, label %123, label %166

123:                                              ; preds = %116
  %124 = load i32, ptr %11, align 4
  %125 = icmp ne i32 %124, 0
  br i1 %125, label %126, label %148

126:                                              ; preds = %123
  %127 = load ptr, ptr %18, align 8
  store ptr %127, ptr %24, align 8
  %128 = load i32, ptr %15, align 4
  store i32 %128, ptr %25, align 4
  br label %129

129:                                              ; preds = %144, %126
  %130 = load i32, ptr %25, align 4
  %131 = load i32, ptr %20, align 4
  %132 = icmp ult i32 %130, %131
  br i1 %132, label %133, label %147

133:                                              ; preds = %129
  %134 = load ptr, ptr %24, align 8
  %135 = load i32, ptr %15, align 4
  %136 = sub i32 %135, 1
  %137 = zext i32 %136 to i64
  %138 = getelementptr inbounds i16, ptr %134, i64 %137
  %139 = load i16, ptr %138, align 2
  %140 = load ptr, ptr %24, align 8
  %141 = load i32, ptr %25, align 4
  %142 = zext i32 %141 to i64
  %143 = getelementptr inbounds i16, ptr %140, i64 %142
  store i16 %139, ptr %143, align 2
  br label %144

144:                                              ; preds = %133
  %145 = load i32, ptr %25, align 4
  %146 = add i32 %145, 1
  store i32 %146, ptr %25, align 4
  br label %129, !llvm.loop !49

147:                                              ; preds = %129
  br label %165

148:                                              ; preds = %123
  %149 = load ptr, ptr %18, align 8
  %150 = load i32, ptr %15, align 4
  %151 = zext i32 %150 to i64
  %152 = getelementptr inbounds i8, ptr %149, i64 %151
  %153 = load ptr, ptr %18, align 8
  %154 = load i32, ptr %15, align 4
  %155 = sub i32 %154, 1
  %156 = zext i32 %155 to i64
  %157 = getelementptr inbounds i8, ptr %153, i64 %156
  %158 = load i8, ptr %157, align 1
  %159 = zext i8 %158 to i32
  %160 = trunc i32 %159 to i8
  %161 = load i32, ptr %20, align 4
  %162 = load i32, ptr %15, align 4
  %163 = sub i32 %161, %162
  %164 = zext i32 %163 to i64
  call void @llvm.memset.p0.i64(ptr align 1 %152, i8 %160, i64 %164, i1 false)
  br label %165

165:                                              ; preds = %148, %147
  br label %166

166:                                              ; preds = %165, %116
  %167 = load i32, ptr %14, align 4
  %168 = load ptr, ptr %13, align 8
  %169 = zext i32 %167 to i64
  %170 = getelementptr inbounds i8, ptr %168, i64 %169
  store ptr %170, ptr %13, align 8
  %171 = load i32, ptr %19, align 4
  %172 = load ptr, ptr %18, align 8
  %173 = zext i32 %171 to i64
  %174 = getelementptr inbounds i8, ptr %172, i64 %173
  store ptr %174, ptr %18, align 8
  br label %175

175:                                              ; preds = %166
  %176 = load i32, ptr %23, align 4
  %177 = add i32 %176, 1
  store i32 %177, ptr %23, align 4
  br label %112, !llvm.loop !50

178:                                              ; preds = %112
  %179 = load i32, ptr %16, align 4
  store i32 %179, ptr %26, align 4
  br label %180

180:                                              ; preds = %196, %178
  %181 = load i32, ptr %26, align 4
  %182 = load i32, ptr %21, align 4
  %183 = icmp ult i32 %181, %182
  br i1 %183, label %184, label %199

184:                                              ; preds = %180
  %185 = load ptr, ptr %18, align 8
  %186 = load ptr, ptr %18, align 8
  %187 = load i32, ptr %19, align 4
  %188 = zext i32 %187 to i64
  %189 = sub i64 0, %188
  %190 = getelementptr inbounds i8, ptr %186, i64 %189
  %191 = load i64, ptr %22, align 8
  call void @llvm.memcpy.p0.p0.i64(ptr align 1 %185, ptr align 1 %190, i64 %191, i1 false)
  %192 = load i32, ptr %19, align 4
  %193 = load ptr, ptr %18, align 8
  %194 = zext i32 %192 to i64
  %195 = getelementptr inbounds i8, ptr %193, i64 %194
  store ptr %195, ptr %18, align 8
  br label %196

196:                                              ; preds = %184
  %197 = load i32, ptr %26, align 4
  %198 = add i32 %197, 1
  store i32 %198, ptr %26, align 4
  br label %180, !llvm.loop !51

199:                                              ; preds = %180
  br label %200

200:                                              ; preds = %199
  %201 = load i32, ptr %12, align 4
  %202 = add nsw i32 %201, 1
  store i32 %202, ptr %12, align 4
  br label %74, !llvm.loop !52

203:                                              ; preds = %74
  %204 = load ptr, ptr %8, align 8
  store ptr %204, ptr %4, align 8
  br label %205

205:                                              ; preds = %203, %68, %55, %36, %30
  %206 = load ptr, ptr %4, align 8
  ret ptr %206
}