; Function Attrs: nounwind uwtable
define internal fastcc ptr @avifImageCopyAndPad(ptr noundef %0, i32 noundef %1, i32 noundef %2) unnamed_addr #1 {
  %4 = tail call ptr @avifImageCreateEmpty() #13
  %.not = icmp eq ptr %4, null
  br i1 %.not, label %.loopexit95, label %5

5:                                                ; preds = %3
  %6 = tail call i32 @avifImageCopy(ptr noundef nonnull %4, ptr noundef %0, i32 noundef 0) #13
  %.not88 = icmp eq i32 %6, 0
  br i1 %.not88, label %7, label %.loopexit95.sink.split

7:                                                ; preds = %5
  store i32 %1, ptr %4, align 8
  %8 = getelementptr inbounds nuw i8, ptr %4, i64 4
  store i32 %2, ptr %8, align 4
  %9 = getelementptr inbounds nuw i8, ptr %0, i64 24
  %10 = load ptr, ptr %9, align 8
  %.not89 = icmp eq ptr %10, null
  br i1 %.not89, label %13, label %11

11:                                               ; preds = %7
  %12 = tail call i32 @avifImageAllocatePlanes(ptr noundef nonnull %4, i32 noundef 1) #13
  %.not90 = icmp eq i32 %12, 0
  br i1 %.not90, label %13, label %.loopexit95.sink.split

13:                                               ; preds = %11, %7
  %14 = getelementptr inbounds nuw i8, ptr %0, i64 64
  %15 = load ptr, ptr %14, align 8
  %.not91 = icmp eq ptr %15, null
  br i1 %.not91, label %18, label %16

16:                                               ; preds = %13
  %17 = tail call i32 @avifImageAllocatePlanes(ptr noundef nonnull %4, i32 noundef 2) #13
  %.not92 = icmp eq i32 %17, 0
  br i1 %.not92, label %18, label %.loopexit95.sink.split

18:                                               ; preds = %16, %13
  %19 = tail call i32 @avifImageUsesU16(ptr noundef nonnull %0) #13
  %20 = zext i32 %19 to i64
  %.not93 = icmp eq i32 %19, 0
  br label %21

21:                                               ; preds = %18, %._crit_edge
  %.081109 = phi i32 [ 0, %18 ], [ %63, %._crit_edge ]
  %22 = tail call ptr @avifImagePlane(ptr noundef %0, i32 noundef %.081109) #13
  %23 = tail call i32 @avifImagePlaneRowBytes(ptr noundef %0, i32 noundef %.081109) #13
  %24 = tail call i32 @avifImagePlaneWidth(ptr noundef %0, i32 noundef %.081109) #13
  %25 = tail call i32 @avifImagePlaneHeight(ptr noundef %0, i32 noundef %.081109) #13
  %26 = zext i32 %24 to i64
  %27 = shl i64 %26, %20
  %28 = tail call ptr @avifImagePlane(ptr noundef nonnull %4, i32 noundef %.081109) #13
  %29 = tail call i32 @avifImagePlaneRowBytes(ptr noundef nonnull %4, i32 noundef %.081109) #13
  %30 = tail call i32 @avifImagePlaneWidth(ptr noundef nonnull %4, i32 noundef %.081109) #13
  %31 = tail call i32 @avifImagePlaneHeight(ptr noundef nonnull %4, i32 noundef %.081109) #13
  %32 = zext i32 %30 to i64
  %33 = shl i64 %32, %20
  %.not110 = icmp eq i32 %25, 0
  br i1 %.not110, label %.preheader94, label %.lr.ph100

.lr.ph100:                                        ; preds = %21
  %34 = icmp ugt i32 %30, %24
  %35 = add i32 %24, -1
  %36 = zext i32 %35 to i64
  %37 = sub i32 %30, %24
  %38 = zext i32 %37 to i64
  %39 = zext i32 %23 to i64
  %40 = zext i32 %29 to i64
  br i1 %34, label %.lr.ph100.split.us, label %.lr.ph100.split

.lr.ph100.split.us:                               ; preds = %.lr.ph100
  br i1 %.not93, label %.lr.ph100.split.us.split.us, label %.preheader.us.us

.lr.ph100.split.us.split.us:                      ; preds = %.lr.ph100.split.us, %.lr.ph100.split.us.split.us
  %.08099.us.us = phi i32 [ %46, %.lr.ph100.split.us.split.us ], [ 0, %.lr.ph100.split.us ]
  %.08298.us.us = phi ptr [ %44, %.lr.ph100.split.us.split.us ], [ %22, %.lr.ph100.split.us ]
  %.08397.us.us = phi ptr [ %45, %.lr.ph100.split.us.split.us ], [ %28, %.lr.ph100.split.us ]
  tail call void @llvm.memcpy.p0.p0.i64(ptr align 1 %.08397.us.us, ptr align 1 %.08298.us.us, i64 %27, i1 false)
  %41 = getelementptr inbounds i8, ptr %.08397.us.us, i64 %26
  %42 = getelementptr inbounds i8, ptr %.08397.us.us, i64 %36
  %43 = load i8, ptr %42, align 1
  tail call void @llvm.memset.p0.i64(ptr align 1 %41, i8 %43, i64 %38, i1 false)
  %44 = getelementptr inbounds i8, ptr %.08298.us.us, i64 %39
  %45 = getelementptr inbounds i8, ptr %.08397.us.us, i64 %40
  %46 = add nuw i32 %.08099.us.us, 1
  %exitcond121.not = icmp eq i32 %46, %25
  br i1 %exitcond121.not, label %.preheader94, label %.lr.ph100.split.us.split.us, !llvm.loop !50

.preheader.us.us:                                 ; preds = %.lr.ph100.split.us, %..loopexit_crit_edge.us.us
  %.08099.us.us102 = phi i32 [ %52, %..loopexit_crit_edge.us.us ], [ 0, %.lr.ph100.split.us ]
  %.08298.us.us103 = phi ptr [ %50, %..loopexit_crit_edge.us.us ], [ %22, %.lr.ph100.split.us ]
  %.08397.us.us104 = phi ptr [ %51, %..loopexit_crit_edge.us.us ], [ %28, %.lr.ph100.split.us ]
  tail call void @llvm.memcpy.p0.p0.i64(ptr align 1 %.08397.us.us104, ptr align 1 %.08298.us.us103, i64 %27, i1 false)
  %47 = getelementptr inbounds i16, ptr %.08397.us.us104, i64 %36
  %.pre = load i16, ptr %47, align 2
  br label %48

48:                                               ; preds = %.preheader.us.us, %48
  %indvars.iv = phi i64 [ %26, %.preheader.us.us ], [ %indvars.iv.next, %48 ]
  %49 = getelementptr inbounds i16, ptr %.08397.us.us104, i64 %indvars.iv
  store i16 %.pre, ptr %49, align 2
  %indvars.iv.next = add nuw nsw i64 %indvars.iv, 1
  %exitcond119.not = icmp eq i64 %indvars.iv.next, %32
  br i1 %exitcond119.not, label %..loopexit_crit_edge.us.us, label %48, !llvm.loop !51

..loopexit_crit_edge.us.us:                       ; preds = %48
  %50 = getelementptr inbounds i8, ptr %.08298.us.us103, i64 %39
  %51 = getelementptr inbounds i8, ptr %.08397.us.us104, i64 %40
  %52 = add nuw i32 %.08099.us.us102, 1
  %exitcond120.not = icmp eq i32 %52, %25
  br i1 %exitcond120.not, label %.preheader94, label %.preheader.us.us, !llvm.loop !50

.preheader94:                                     ; preds = %.lr.ph100.split, %..loopexit_crit_edge.us.us, %.lr.ph100.split.us.split.us, %21
  %.083.lcssa = phi ptr [ %28, %21 ], [ %45, %.lr.ph100.split.us.split.us ], [ %51, %..loopexit_crit_edge.us.us ], [ %57, %.lr.ph100.split ]
  %53 = icmp ult i32 %25, %31
  br i1 %53, label %.lr.ph, label %._crit_edge

.lr.ph:                                           ; preds = %.preheader94
  %54 = zext i32 %29 to i64
  %55 = sub nsw i64 0, %54
  br label %59

.lr.ph100.split:                                  ; preds = %.lr.ph100, %.lr.ph100.split
  %.08099 = phi i32 [ %58, %.lr.ph100.split ], [ 0, %.lr.ph100 ]
  %.08298 = phi ptr [ %56, %.lr.ph100.split ], [ %22, %.lr.ph100 ]
  %.08397 = phi ptr [ %57, %.lr.ph100.split ], [ %28, %.lr.ph100 ]
  tail call void @llvm.memcpy.p0.p0.i64(ptr align 1 %.08397, ptr align 1 %.08298, i64 %27, i1 false)
  %56 = getelementptr inbounds i8, ptr %.08298, i64 %39
  %57 = getelementptr inbounds i8, ptr %.08397, i64 %40
  %58 = add nuw i32 %.08099, 1
  %exitcond.not = icmp eq i32 %58, %25
  br i1 %exitcond.not, label %.preheader94, label %.lr.ph100.split, !llvm.loop !50

59:                                               ; preds = %.lr.ph, %59
  %.0108 = phi i32 [ %25, %.lr.ph ], [ %62, %59 ]
  %.1107 = phi ptr [ %.083.lcssa, %.lr.ph ], [ %61, %59 ]
  %60 = getelementptr inbounds i8, ptr %.1107, i64 %55
  tail call void @llvm.memcpy.p0.p0.i64(ptr align 1 %.1107, ptr align 1 %60, i64 %33, i1 false)
  %61 = getelementptr inbounds i8, ptr %.1107, i64 %54
  %62 = add nuw i32 %.0108, 1
  %exitcond122.not = icmp eq i32 %62, %31
  br i1 %exitcond122.not, label %._crit_edge, label %59, !llvm.loop !52

._crit_edge:                                      ; preds = %59, %.preheader94
  %63 = add nuw nsw i32 %.081109, 1
  %exitcond123.not = icmp eq i32 %63, 4
  br i1 %exitcond123.not, label %.loopexit95, label %21, !llvm.loop !53

.loopexit95.sink.split:                           ; preds = %16, %11, %5
  tail call void @avifImageDestroy(ptr noundef nonnull %4) #13
  br label %.loopexit95

.loopexit95:                                      ; preds = %._crit_edge, %.loopexit95.sink.split, %3
  %.079 = phi ptr [ null, %3 ], [ null, %.loopexit95.sink.split ], [ %4, %._crit_edge ]
  ret ptr %.079
}